; Function Attrs: mustprogress uwtable
define void @_ZN7rocksdb23CompactionServiceResult5WriteEPNSt7__cxx1112basic_stringIcSt11char_traitsIcESaIcEEE(ptr dead_on_unwind noalias writable sret(%"class.rocksdb::Status") align 8 %0, ptr noundef nonnull align 8 dereferenceable(400) %1, ptr noundef %2) local_unnamed_addr #4 align 2 personality ptr @__gxx_personality_v0 {
  %4 = alloca [4 x i8], align 4
  %5 = alloca %"struct.rocksdb::ConfigOptions", align 8
  call void @llvm.lifetime.start.p0(i64 4, ptr nonnull %4) #28
  store i32 1, ptr %4, align 4
  %6 = getelementptr inbounds nuw i8, ptr %2, i64 8
  %7 = load i64, ptr %6, align 8, !tbaa !16
  %8 = and i64 %7, -4
  %9 = icmp eq i64 %8, 4611686018427387900
  br i1 %9, label %10, label %_ZNSt7__cxx1112basic_stringIcSt11char_traitsIcESaIcEE6appendEPKcm.exit

10:                                               ; preds = %3
  tail call void @_ZSt20__throw_length_errorPKc(ptr noundef nonnull @.str.130) #29
  unreachable

_ZNSt7__cxx1112basic_stringIcSt11char_traitsIcESaIcEE6appendEPKcm.exit: ; preds = %3
  %11 = call noundef nonnull align 8 dereferenceable(32) ptr @_ZNSt7__cxx1112basic_stringIcSt11char_traitsIcESaIcEE9_M_appendEPKcm(ptr noundef nonnull align 8 dereferenceable(32) %2, ptr noundef nonnull %4, i64 noundef 4)
  call void @llvm.lifetime.start.p0(i64 80, ptr nonnull %5) #28
  call void @_ZN7rocksdb13ConfigOptionsC1Ev(ptr noundef nonnull align 8 dereferenceable(80) %5)
  %12 = getelementptr inbounds nuw i8, ptr %5, i64 3
  store i8 0, ptr %12, align 1, !tbaa !542
  invoke void @_ZN7rocksdb14OptionTypeInfo13SerializeTypeERKNS_13ConfigOptionsERKSt13unordered_mapINSt7__cxx1112basic_stringIcSt11char_traitsIcESaIcEEES0_St4hashISA_ESt8equal_toISA_ESaISt4pairIKSA_S0_EEEPKvPSA_(ptr dead_on_unwind writable sret(%"class.rocksdb::Status") align 8 %0, ptr noundef nonnull align 8 dereferenceable(80) %5, ptr noundef nonnull align 8 dereferenceable(56) @_ZN7rocksdbL19cs_result_type_infoB5cxx11E, ptr noundef nonnull %1, ptr noundef nonnull %2)
          to label %13 unwind label %46

13:                                               ; preds = %_ZNSt7__cxx1112basic_stringIcSt11char_traitsIcESaIcEE6appendEPKcm.exit
  %14 = getelementptr inbounds nuw i8, ptr %5, i64 72
  %15 = load ptr, ptr %14, align 8, !tbaa !464
  %.not.i.i.i = icmp eq ptr %15, null
  br i1 %.not.i.i.i, label %_ZNSt12__shared_ptrIN7rocksdb14ObjectRegistryELN9__gnu_cxx12_Lock_policyE2EED2Ev.exit.i, label %16

16:                                               ; preds = %13
  %17 = getelementptr inbounds nuw i8, ptr %15, i64 8
  %18 = load atomic i64, ptr %17 acquire, align 8
  %19 = icmp eq i64 %18, 4294967297
  %20 = trunc i64 %18 to i32
  br i1 %19, label %21, label %29

21:                                               ; preds = %16
  store i32 0, ptr %17, align 8, !tbaa !476
  %22 = getelementptr inbounds nuw i8, ptr %15, i64 12
  store i32 0, ptr %22, align 4, !tbaa !478
  %23 = load ptr, ptr %15, align 8, !tbaa !422
  %24 = getelementptr inbounds nuw i8, ptr %23, i64 16
  %25 = load ptr, ptr %24, align 8
  call void %25(ptr noundef nonnull align 8 dereferenceable(16) %15) #28
  %26 = load ptr, ptr %15, align 8, !tbaa !422
  %27 = getelementptr inbounds nuw i8, ptr %26, i64 24
  %28 = load ptr, ptr %27, align 8
  call void %28(ptr noundef nonnull align 8 dereferenceable(16) %15) #28
  br label %_ZNSt12__shared_ptrIN7rocksdb14ObjectRegistryELN9__gnu_cxx12_Lock_policyE2EED2Ev.exit.i

29:                                               ; preds = %16
  %30 = load i8, ptr @__libc_single_threaded, align 1, !tbaa !17
  %.not.i.i.i.i = icmp eq i8 %30, 0
  br i1 %.not.i.i.i.i, label %33, label %31

31:                                               ; preds = %29
  %32 = add nsw i32 %20, -1
  store i32 %32, ptr %17, align 4, !tbaa !465
  br label %_ZN9__gnu_cxx27__exchange_and_add_dispatchEPii.exit.i.i.i.i

33:                                               ; preds = %29
  %34 = atomicrmw volatile add ptr %17, i32 -1 acq_rel, align 4
  br label %_ZN9__gnu_cxx27__exchange_and_add_dispatchEPii.exit.i.i.i.i

_ZN9__gnu_cxx27__exchange_and_add_dispatchEPii.exit.i.i.i.i: ; preds = %33, %31
  %.0.i.i.i.i.i = phi i32 [ %20, %31 ], [ %34, %33 ]
  %35 = icmp eq i32 %.0.i.i.i.i.i, 1
  br i1 %35, label %36, label %_ZNSt12__shared_ptrIN7rocksdb14ObjectRegistryELN9__gnu_cxx12_Lock_policyE2EED2Ev.exit.i, !prof !380

36:                                               ; preds = %_ZN9__gnu_cxx27__exchange_and_add_dispatchEPii.exit.i.i.i.i
  call void @_ZNSt16_Sp_counted_baseILN9__gnu_cxx12_Lock_policyE2EE24_M_release_last_use_coldEv(ptr noundef nonnull align 8 dereferenceable(16) %15) #28
  br label %_ZNSt12__shared_ptrIN7rocksdb14ObjectRegistryELN9__gnu_cxx12_Lock_policyE2EED2Ev.exit.i

_ZNSt12__shared_ptrIN7rocksdb14ObjectRegistryELN9__gnu_cxx12_Lock_policyE2EED2Ev.exit.i: ; preds = %36, %_ZN9__gnu_cxx27__exchange_and_add_dispatchEPii.exit.i.i.i.i, %21, %13
  %37 = getelementptr inbounds nuw i8, ptr %5, i64 8
  %38 = load ptr, ptr %37, align 8, !tbaa !11
  %39 = getelementptr inbounds nuw i8, ptr %5, i64 24
  %40 = icmp eq ptr %38, %39
  br i1 %40, label %_ZNKSt7__cxx1112basic_stringIcSt11char_traitsIcESaIcEE11_M_is_localEv.exit.thread.i.i.i, label %_ZNKSt7__cxx1112basic_stringIcSt11char_traitsIcESaIcEE11_M_is_localEv.exit.i.i.i

_ZNKSt7__cxx1112basic_stringIcSt11char_traitsIcESaIcEE11_M_is_localEv.exit.thread.i.i.i: ; preds = %_ZNSt12__shared_ptrIN7rocksdb14ObjectRegistryELN9__gnu_cxx12_Lock_policyE2EED2Ev.exit.i
  %41 = getelementptr inbounds nuw i8, ptr %5, i64 16
  %42 = load i64, ptr %41, align 8, !tbaa !16
  %43 = icmp ult i64 %42, 16
  call void @llvm.assume(i1 %43)
  br label %_ZN7rocksdb13ConfigOptionsD2Ev.exit

_ZNKSt7__cxx1112basic_stringIcSt11char_traitsIcESaIcEE11_M_is_localEv.exit.i.i.i: ; preds = %_ZNSt12__shared_ptrIN7rocksdb14ObjectRegistryELN9__gnu_cxx12_Lock_policyE2EED2Ev.exit.i
  %44 = load i64, ptr %39, align 8, !tbaa !17
  %45 = add i64 %44, 1
  call void @_ZdlPvm(ptr noundef %38, i64 noundef %45) #27
  br label %_ZN7rocksdb13ConfigOptionsD2Ev.exit

_ZN7rocksdb13ConfigOptionsD2Ev.exit:              ; preds = %_ZNKSt7__cxx1112basic_stringIcSt11char_traitsIcESaIcEE11_M_is_localEv.exit.thread.i.i.i, %_ZNKSt7__cxx1112basic_stringIcSt11char_traitsIcESaIcEE11_M_is_localEv.exit.i.i.i
  call void @llvm.lifetime.end.p0(i64 80, ptr nonnull %5) #28
  call void @llvm.lifetime.end.p0(i64 4, ptr nonnull %4) #28
  ret void

46:                                               ; preds = %_ZNSt7__cxx1112basic_stringIcSt11char_traitsIcESaIcEE6appendEPKcm.exit
  %47 = landingpad { ptr, i32 }
          cleanup
  call void @_ZN7rocksdb13ConfigOptionsD2Ev(ptr noundef nonnull align 8 dereferenceable(80) %5) #28
  call void @llvm.lifetime.end.p0(i64 80, ptr nonnull %5) #28
  call void @llvm.lifetime.end.p0(i64 4, ptr nonnull %4) #28
  resume { ptr, i32 } %47
}